target datalayout = "e-m:e-p270:32:32-p271:32:32-p272:64:64-i64:64-i128:128-f80:128-n8:16:32:64-S128"
target triple = "x86_64-pc-linux-gnu"

@rb_define_method.rbimpl_id = internal global i64 0, align 8
@rb_define_private_method.rbimpl_id = internal global i64 0, align 8
@rb_mKernel = external global i64, align 8

; Function Attrs: inlinehint nounwind sspstrong willreturn memory(read) uwtable
define internal i64 @rb_intern_const(ptr noundef nonnull %0) #6 {
  %2 = alloca ptr, align 8
  %3 = alloca i64, align 8
  store ptr %0, ptr %2, align 8, !tbaa !64
  call void @llvm.lifetime.start.p0(i64 8, ptr %3) #23
  %4 = load ptr, ptr %2, align 8, !tbaa !64
  %5 = call i64 @strlen(ptr noundef %4) #25
  store i64 %5, ptr %3, align 8, !tbaa !7
  %6 = load ptr, ptr %2, align 8, !tbaa !64
  %7 = load i64, ptr %3, align 8, !tbaa !7
  %8 = call i64 @rb_intern2(ptr noundef %6, i64 noundef %7)
  call void @llvm.lifetime.end.p0(i64 8, ptr %3) #23
  ret i64 %8
}

; Function Attrs: nounwind sspstrong uwtable
define dso_local void @rb_define_method(i64 noundef %0, ptr noundef nonnull %1, ptr noundef nonnull %2, i32 noundef %3) #0 {
  %5 = alloca i64, align 8
  %6 = alloca ptr, align 8
  %7 = alloca ptr, align 8
  %8 = alloca i32, align 4
  %9 = alloca i64, align 8
  store i64 %0, ptr %5, align 8, !tbaa !7
  store ptr %1, ptr %6, align 8, !tbaa !64
  store ptr %2, ptr %7, align 8, !tbaa !29
  store i32 %3, ptr %8, align 4, !tbaa !39
  %10 = load i64, ptr %5, align 8, !tbaa !7
  br i1 false, label %11, label %15

11:                                               ; preds = %4
  %12 = load ptr, ptr %6, align 8, !tbaa !64
  %13 = call i64 @rbimpl_intern_const(ptr noundef @rb_define_method.rbimpl_id, ptr noundef %12) #27
  store i64 %13, ptr %9, align 8, !tbaa !7
  %14 = load i64, ptr %9, align 8, !tbaa !7
  br label %18

15:                                               ; preds = %4
  %16 = load ptr, ptr %6, align 8, !tbaa !64
  %17 = call i64 @rb_intern(ptr noundef %16)
  br label %18

18:                                               ; preds = %15, %11
  %19 = phi i64 [ %14, %11 ], [ %17, %15 ]
  %20 = load ptr, ptr %7, align 8, !tbaa !29
  %21 = load i32, ptr %8, align 4, !tbaa !39
  call void @rb_add_method_cfunc(i64 noundef %10, i64 noundef %19, ptr noundef %20, i32 noundef %21, i32 noundef 1)
  ret void
}

; Function Attrs: inlinehint nounwind sspstrong memory(argmem: readwrite, inaccessiblemem: readwrite) uwtable
define internal i64 @rbimpl_intern_const(ptr noundef nonnull %0, ptr noundef nonnull %1) #9 {
  %3 = alloca ptr, align 8
  %4 = alloca ptr, align 8
  store ptr %0, ptr %3, align 8, !tbaa !40
  store ptr %1, ptr %4, align 8, !tbaa !64
  br label %5

5:                                                ; preds = %10, %2
  %6 = load ptr, ptr %3, align 8, !tbaa !40
  %7 = load i64, ptr %6, align 8, !tbaa !7
  %8 = icmp ne i64 %7, 0
  %9 = xor i1 %8, true
  br i1 %9, label %10, label %14

10:                                               ; preds = %5
  %11 = load ptr, ptr %4, align 8, !tbaa !64
  %12 = call i64 @rb_intern_const(ptr noundef %11) #25
  %13 = load ptr, ptr %3, align 8, !tbaa !40
  store i64 %12, ptr %13, align 8, !tbaa !7
  br label %5, !llvm.loop !67

14:                                               ; preds = %5
  %15 = load ptr, ptr %3, align 8, !tbaa !40
  %16 = load i64, ptr %15, align 8, !tbaa !7
  ret i64 %16
}

; Function Attrs: nounwind sspstrong uwtable
define dso_local void @rb_define_singleton_method(i64 noundef %0, ptr noundef nonnull %1, ptr noundef nonnull %2, i32 noundef %3) #0 {
  %5 = alloca i64, align 8
  %6 = alloca ptr, align 8
  %7 = alloca ptr, align 8
  %8 = alloca i32, align 4
  store i64 %0, ptr %5, align 8, !tbaa !7
  store ptr %1, ptr %6, align 8, !tbaa !64
  store ptr %2, ptr %7, align 8, !tbaa !29
  store i32 %3, ptr %8, align 4, !tbaa !39
  %9 = load i64, ptr %5, align 8, !tbaa !7
  %10 = call i64 @singleton_class_of(i64 noundef %9)
  %11 = load ptr, ptr %6, align 8, !tbaa !64
  %12 = load ptr, ptr %7, align 8, !tbaa !29
  %13 = load i32, ptr %8, align 4, !tbaa !39
  call void @rb_define_method(i64 noundef %10, ptr noundef %11, ptr noundef %12, i32 noundef %13)
  ret void
}

; Function Attrs: nounwind sspstrong uwtable
define dso_local void @rb_define_private_method(i64 noundef %0, ptr noundef nonnull %1, ptr noundef nonnull %2, i32 noundef %3) #0 {
  %5 = alloca i64, align 8
  %6 = alloca ptr, align 8
  %7 = alloca ptr, align 8
  %8 = alloca i32, align 4
  %9 = alloca i64, align 8
  store i64 %0, ptr %5, align 8, !tbaa !7
  store ptr %1, ptr %6, align 8, !tbaa !64
  store ptr %2, ptr %7, align 8, !tbaa !29
  store i32 %3, ptr %8, align 4, !tbaa !39
  %10 = load i64, ptr %5, align 8, !tbaa !7
  br i1 false, label %11, label %15

11:                                               ; preds = %4
  %12 = load ptr, ptr %6, align 8, !tbaa !64
  %13 = call i64 @rbimpl_intern_const(ptr noundef @rb_define_private_method.rbimpl_id, ptr noundef %12) #27
  store i64 %13, ptr %9, align 8, !tbaa !7
  %14 = load i64, ptr %9, align 8, !tbaa !7
  br label %18

15:                                               ; preds = %4
  %16 = load ptr, ptr %6, align 8, !tbaa !64
  %17 = call i64 @rb_intern(ptr noundef %16)
  br label %18

18:                                               ; preds = %15, %11
  %19 = phi i64 [ %14, %11 ], [ %17, %15 ]
  %20 = load ptr, ptr %7, align 8, !tbaa !29
  %21 = load i32, ptr %8, align 4, !tbaa !39
  call void @rb_add_method_cfunc(i64 noundef %10, i64 noundef %19, ptr noundef %20, i32 noundef %21, i32 noundef 2)
  ret void
}

; Function Attrs: nounwind sspstrong uwtable
define dso_local void @rb_define_module_function(i64 noundef %0, ptr noundef nonnull %1, ptr noundef nonnull %2, i32 noundef %3) #0 {
  %5 = alloca i64, align 8
  %6 = alloca ptr, align 8
  %7 = alloca ptr, align 8
  %8 = alloca i32, align 4
  store i64 %0, ptr %5, align 8, !tbaa !7
  store ptr %1, ptr %6, align 8, !tbaa !64
  store ptr %2, ptr %7, align 8, !tbaa !29
  store i32 %3, ptr %8, align 4, !tbaa !39
  %9 = load i64, ptr %5, align 8, !tbaa !7
  %10 = load ptr, ptr %6, align 8, !tbaa !64
  %11 = load ptr, ptr %7, align 8, !tbaa !29
  %12 = load i32, ptr %8, align 4, !tbaa !39
  call void @rb_define_private_method(i64 noundef %9, ptr noundef %10, ptr noundef %11, i32 noundef %12)
  %13 = load i64, ptr %5, align 8, !tbaa !7
  %14 = load ptr, ptr %6, align 8, !tbaa !64
  %15 = load ptr, ptr %7, align 8, !tbaa !29
  %16 = load i32, ptr %8, align 4, !tbaa !39
  call void @rb_define_singleton_method(i64 noundef %13, ptr noundef %14, ptr noundef %15, i32 noundef %16)
  ret void
}

; Function Attrs: nounwind sspstrong uwtable
define dso_local void @rb_define_global_function(ptr noundef nonnull %0, ptr noundef nonnull %1, i32 noundef %2) #0 {
  %4 = alloca ptr, align 8
  %5 = alloca ptr, align 8
  %6 = alloca i32, align 4
  store ptr %0, ptr %4, align 8, !tbaa !64
  store ptr %1, ptr %5, align 8, !tbaa !29
  store i32 %2, ptr %6, align 4, !tbaa !39
  %7 = load i64, ptr @rb_mKernel, align 8, !tbaa !7
  %8 = load ptr, ptr %4, align 8, !tbaa !64
  %9 = load ptr, ptr %5, align 8, !tbaa !29
  %10 = load i32, ptr %6, align 4, !tbaa !39
  call void @rb_define_module_function(i64 noundef %7, ptr noundef %8, ptr noundef %9, i32 noundef %10)
  ret void
}