; Function Attrs: nounwind sspstrong uwtable
define dso_local void @rb_define_global_function(ptr noundef nonnull %0, ptr noundef nonnull %1, i32 noundef %2) local_unnamed_addr #0 {
  %4 = load i64, ptr @rb_mKernel, align 8, !tbaa !29
  %5 = tail call i64 @rb_intern(ptr noundef nonnull %0) #19
  tail call void @rb_add_method_cfunc(i64 noundef %4, i64 noundef %5, ptr noundef nonnull %1, i32 noundef %2, i32 noundef 2) #19
  %6 = tail call fastcc i64 @singleton_class_of(i64 noundef %4)
  %7 = tail call i64 @rb_intern(ptr noundef nonnull %0) #19
  tail call void @rb_add_method_cfunc(i64 noundef %6, i64 noundef %7, ptr noundef nonnull %1, i32 noundef %2, i32 noundef 1) #19
  ret void
}